target datalayout = "e-m:e-p270:32:32-p271:32:32-p272:64:64-i64:64-i128:128-f80:128-n8:16:32:64-S128"
target triple = "x86_64-pc-linux-gnu"

%struct.aclSelector = type { i32, [16 x i64], ptr, ptr, ptr, ptr }
%struct.redisCommand = type { ptr, ptr, ptr, ptr, i32, ptr, ptr, i32, ptr, i32, ptr, i32, ptr, i32, i64, i64, ptr, i32, ptr, i32, ptr, ptr, i64, i64, i64, i64, i32, ptr, ptr, %struct.keySpec, ptr, ptr, ptr }
%struct.keySpec = type { ptr, i64, i32, %union.anon, i32, %union.anon.2 }
%union.anon = type { %struct.anon.1 }
%struct.anon.1 = type { ptr, i32 }
%union.anon.2 = type { %struct.anon.3 }
%struct.anon.3 = type { i32, i32, i32 }

; Function Attrs: nounwind uwtable
define dso_local i32 @ACLGetCommandBitCoordinates(i64 noundef %0, ptr noundef %1, ptr noundef %2) #0 {
  %4 = alloca i32, align 4
  %5 = alloca i64, align 8
  %6 = alloca ptr, align 8
  %7 = alloca ptr, align 8
  store i64 %0, ptr %5, align 8, !tbaa !10
  store ptr %1, ptr %6, align 8, !tbaa !105
  store ptr %2, ptr %7, align 8, !tbaa !105
  %8 = load i64, ptr %5, align 8, !tbaa !10
  %9 = icmp uge i64 %8, 1024
  br i1 %9, label %10, label %11

10:                                               ; preds = %3
  store i32 -1, ptr %4, align 4
  br label %20

11:                                               ; preds = %3
  %12 = load i64, ptr %5, align 8, !tbaa !10
  %13 = udiv i64 %12, 8
  %14 = udiv i64 %13, 8
  %15 = load ptr, ptr %6, align 8, !tbaa !105
  store i64 %14, ptr %15, align 8, !tbaa !10
  %16 = load i64, ptr %5, align 8, !tbaa !10
  %17 = urem i64 %16, 64
  %18 = shl i64 1, %17
  %19 = load ptr, ptr %7, align 8, !tbaa !105
  store i64 %18, ptr %19, align 8, !tbaa !10
  store i32 0, ptr %4, align 4
  br label %20

20:                                               ; preds = %11, %10
  %21 = load i32, ptr %4, align 4
  ret i32 %21
}

; Function Attrs: nounwind uwtable
define dso_local void @ACLResetFirstArgsForCommand(ptr noundef %0, i64 noundef %1) #0 {
  %3 = alloca ptr, align 8
  %4 = alloca i64, align 8
  %5 = alloca i32, align 4
  store ptr %0, ptr %3, align 8, !tbaa !32
  store i64 %1, ptr %4, align 8, !tbaa !10
  %6 = load ptr, ptr %3, align 8, !tbaa !32
  %7 = getelementptr inbounds nuw %struct.aclSelector, ptr %6, i32 0, i32 2
  %8 = load ptr, ptr %7, align 8, !tbaa !69
  %9 = icmp ne ptr %8, null
  br i1 %9, label %10, label %58

10:                                               ; preds = %2
  %11 = load ptr, ptr %3, align 8, !tbaa !32
  %12 = getelementptr inbounds nuw %struct.aclSelector, ptr %11, i32 0, i32 2
  %13 = load ptr, ptr %12, align 8, !tbaa !69
  %14 = load i64, ptr %4, align 8, !tbaa !10
  %15 = getelementptr inbounds nuw ptr, ptr %13, i64 %14
  %16 = load ptr, ptr %15, align 8, !tbaa !33
  %17 = icmp ne ptr %16, null
  br i1 %17, label %18, label %58

18:                                               ; preds = %10
  call void @llvm.lifetime.start.p0(i64 4, ptr %5) #14
  store i32 0, ptr %5, align 4, !tbaa !17
  br label %19

19:                                               ; preds = %43, %18
  %20 = load ptr, ptr %3, align 8, !tbaa !32
  %21 = getelementptr inbounds nuw %struct.aclSelector, ptr %20, i32 0, i32 2
  %22 = load ptr, ptr %21, align 8, !tbaa !69
  %23 = load i64, ptr %4, align 8, !tbaa !10
  %24 = getelementptr inbounds nuw ptr, ptr %22, i64 %23
  %25 = load ptr, ptr %24, align 8, !tbaa !33
  %26 = load i32, ptr %5, align 4, !tbaa !17
  %27 = sext i32 %26 to i64
  %28 = getelementptr inbounds ptr, ptr %25, i64 %27
  %29 = load ptr, ptr %28, align 8, !tbaa !5
  %30 = icmp ne ptr %29, null
  br i1 %30, label %32, label %31

31:                                               ; preds = %19
  call void @llvm.lifetime.end.p0(i64 4, ptr %5) #14
  br label %46

32:                                               ; preds = %19
  %33 = load ptr, ptr %3, align 8, !tbaa !32
  %34 = getelementptr inbounds nuw %struct.aclSelector, ptr %33, i32 0, i32 2
  %35 = load ptr, ptr %34, align 8, !tbaa !69
  %36 = load i64, ptr %4, align 8, !tbaa !10
  %37 = getelementptr inbounds nuw ptr, ptr %35, i64 %36
  %38 = load ptr, ptr %37, align 8, !tbaa !33
  %39 = load i32, ptr %5, align 4, !tbaa !17
  %40 = sext i32 %39 to i64
  %41 = getelementptr inbounds ptr, ptr %38, i64 %40
  %42 = load ptr, ptr %41, align 8, !tbaa !5
  call void @sdsfree(ptr noundef %42)
  br label %43

43:                                               ; preds = %32
  %44 = load i32, ptr %5, align 4, !tbaa !17
  %45 = add nsw i32 %44, 1
  store i32 %45, ptr %5, align 4, !tbaa !17
  br label %19, !llvm.loop !120

46:                                               ; preds = %31
  %47 = load ptr, ptr %3, align 8, !tbaa !32
  %48 = getelementptr inbounds nuw %struct.aclSelector, ptr %47, i32 0, i32 2
  %49 = load ptr, ptr %48, align 8, !tbaa !69
  %50 = load i64, ptr %4, align 8, !tbaa !10
  %51 = getelementptr inbounds nuw ptr, ptr %49, i64 %50
  %52 = load ptr, ptr %51, align 8, !tbaa !33
  call void @zfree(ptr noundef %52)
  %53 = load ptr, ptr %3, align 8, !tbaa !32
  %54 = getelementptr inbounds nuw %struct.aclSelector, ptr %53, i32 0, i32 2
  %55 = load ptr, ptr %54, align 8, !tbaa !69
  %56 = load i64, ptr %4, align 8, !tbaa !10
  %57 = getelementptr inbounds nuw ptr, ptr %55, i64 %56
  store ptr null, ptr %57, align 8, !tbaa !33
  br label %58

58:                                               ; preds = %46, %10, %2
  ret void
}

; Function Attrs: nounwind uwtable
define dso_local void @ACLSetSelectorCommandBit(ptr noundef %0, i64 noundef %1, i32 noundef %2) #0 {
  %4 = alloca ptr, align 8
  %5 = alloca i64, align 8
  %6 = alloca i32, align 4
  %7 = alloca i64, align 8
  %8 = alloca i64, align 8
  %9 = alloca i32, align 4
  store ptr %0, ptr %4, align 8, !tbaa !32
  store i64 %1, ptr %5, align 8, !tbaa !10
  store i32 %2, ptr %6, align 4, !tbaa !17
  call void @llvm.lifetime.start.p0(i64 8, ptr %7) #14
  call void @llvm.lifetime.start.p0(i64 8, ptr %8) #14
  %10 = load i64, ptr %5, align 8, !tbaa !10
  %11 = call i32 @ACLGetCommandBitCoordinates(i64 noundef %10, ptr noundef %7, ptr noundef %8)
  %12 = icmp eq i32 %11, -1
  br i1 %12, label %13, label %14

13:                                               ; preds = %3
  store i32 1, ptr %9, align 4
  br label %39

14:                                               ; preds = %3
  %15 = load i32, ptr %6, align 4, !tbaa !17
  %16 = icmp ne i32 %15, 0
  br i1 %16, label %17, label %25

17:                                               ; preds = %14
  %18 = load i64, ptr %8, align 8, !tbaa !10
  %19 = load ptr, ptr %4, align 8, !tbaa !32
  %20 = getelementptr inbounds nuw %struct.aclSelector, ptr %19, i32 0, i32 1
  %21 = load i64, ptr %7, align 8, !tbaa !10
  %22 = getelementptr inbounds nuw [16 x i64], ptr %20, i64 0, i64 %21
  %23 = load i64, ptr %22, align 8, !tbaa !10
  %24 = or i64 %23, %18
  store i64 %24, ptr %22, align 8, !tbaa !10
  br label %38

25:                                               ; preds = %14
  %26 = load i64, ptr %8, align 8, !tbaa !10
  %27 = xor i64 %26, -1
  %28 = load ptr, ptr %4, align 8, !tbaa !32
  %29 = getelementptr inbounds nuw %struct.aclSelector, ptr %28, i32 0, i32 1
  %30 = load i64, ptr %7, align 8, !tbaa !10
  %31 = getelementptr inbounds nuw [16 x i64], ptr %29, i64 0, i64 %30
  %32 = load i64, ptr %31, align 8, !tbaa !10
  %33 = and i64 %32, %27
  store i64 %33, ptr %31, align 8, !tbaa !10
  %34 = load ptr, ptr %4, align 8, !tbaa !32
  %35 = getelementptr inbounds nuw %struct.aclSelector, ptr %34, i32 0, i32 0
  %36 = load i32, ptr %35, align 8, !tbaa !64
  %37 = and i32 %36, -5
  store i32 %37, ptr %35, align 8, !tbaa !64
  br label %38

38:                                               ; preds = %25, %17
  store i32 0, ptr %9, align 4
  br label %39

39:                                               ; preds = %38, %13
  call void @llvm.lifetime.end.p0(i64 8, ptr %8) #14
  call void @llvm.lifetime.end.p0(i64 8, ptr %7) #14
  %40 = load i32, ptr %9, align 4
  switch i32 %40, label %42 [
    i32 0, label %41
    i32 1, label %41
  ]

41:                                               ; preds = %39, %39
  ret void

42:                                               ; preds = %39
  unreachable
}

; Function Attrs: nounwind uwtable
define dso_local void @ACLChangeSelectorPerm(ptr noundef %0, ptr noundef %1, i32 noundef %2) #0 {
  %4 = alloca ptr, align 8
  %5 = alloca ptr, align 8
  %6 = alloca i32, align 4
  %7 = alloca i64, align 8
  %8 = alloca ptr, align 8
  %9 = alloca ptr, align 8
  %10 = alloca ptr, align 8
  store ptr %0, ptr %4, align 8, !tbaa !32
  store ptr %1, ptr %5, align 8, !tbaa !108
  store i32 %2, ptr %6, align 4, !tbaa !17
  call void @llvm.lifetime.start.p0(i64 8, ptr %7) #14
  %11 = load ptr, ptr %5, align 8, !tbaa !108
  %12 = getelementptr inbounds nuw %struct.redisCommand, ptr %11, i32 0, i32 26
  %13 = load i32, ptr %12, align 8, !tbaa !109
  %14 = sext i32 %13 to i64
  store i64 %14, ptr %7, align 8, !tbaa !10
  %15 = load ptr, ptr %4, align 8, !tbaa !32
  %16 = load i64, ptr %7, align 8, !tbaa !10
  %17 = load i32, ptr %6, align 4, !tbaa !17
  call void @ACLSetSelectorCommandBit(ptr noundef %15, i64 noundef %16, i32 noundef %17)
  %18 = load ptr, ptr %4, align 8, !tbaa !32
  %19 = load i64, ptr %7, align 8, !tbaa !10
  call void @ACLResetFirstArgsForCommand(ptr noundef %18, i64 noundef %19)
  %20 = load ptr, ptr %5, align 8, !tbaa !108
  %21 = getelementptr inbounds nuw %struct.redisCommand, ptr %20, i32 0, i32 30
  %22 = load ptr, ptr %21, align 8, !tbaa !115
  %23 = icmp ne ptr %22, null
  br i1 %23, label %24, label %44

24:                                               ; preds = %3
  call void @llvm.lifetime.start.p0(i64 8, ptr %8) #14
  call void @llvm.lifetime.start.p0(i64 8, ptr %9) #14
  %25 = load ptr, ptr %5, align 8, !tbaa !108
  %26 = getelementptr inbounds nuw %struct.redisCommand, ptr %25, i32 0, i32 30
  %27 = load ptr, ptr %26, align 8, !tbaa !115
  %28 = call ptr @dictGetSafeIterator(ptr noundef %27)
  store ptr %28, ptr %9, align 8, !tbaa !116
  br label %29

29:                                               ; preds = %33, %24
  %30 = load ptr, ptr %9, align 8, !tbaa !116
  %31 = call ptr @dictNext(ptr noundef %30)
  store ptr %31, ptr %8, align 8, !tbaa !118
  %32 = icmp ne ptr %31, null
  br i1 %32, label %33, label %42

33:                                               ; preds = %29
  call void @llvm.lifetime.start.p0(i64 8, ptr %10) #14
  %34 = load ptr, ptr %8, align 8, !tbaa !118
  %35 = call ptr @dictGetVal(ptr noundef %34)
  store ptr %35, ptr %10, align 8, !tbaa !108
  %36 = load ptr, ptr %4, align 8, !tbaa !32
  %37 = load ptr, ptr %10, align 8, !tbaa !108
  %38 = getelementptr inbounds nuw %struct.redisCommand, ptr %37, i32 0, i32 26
  %39 = load i32, ptr %38, align 8, !tbaa !109
  %40 = sext i32 %39 to i64
  %41 = load i32, ptr %6, align 4, !tbaa !17
  call void @ACLSetSelectorCommandBit(ptr noundef %36, i64 noundef %40, i32 noundef %41)
  call void @llvm.lifetime.end.p0(i64 8, ptr %10) #14
  br label %29, !llvm.loop !119

42:                                               ; preds = %29
  %43 = load ptr, ptr %9, align 8, !tbaa !116
  call void @dictReleaseIterator(ptr noundef %43)
  call void @llvm.lifetime.end.p0(i64 8, ptr %9) #14
  call void @llvm.lifetime.end.p0(i64 8, ptr %8) #14
  br label %44

44:                                               ; preds = %42, %3
  call void @llvm.lifetime.end.p0(i64 8, ptr %7) #14
  ret void
}