; Function Attrs: nounwind uwtable
define dso_local void @ACLChangeSelectorPerm(ptr noundef captures(none) %0, ptr noundef readonly captures(none) %1, i32 noundef %2) local_unnamed_addr #0 {
  %4 = getelementptr inbounds nuw i8, ptr %1, i64 208
  %5 = load i32, ptr %4, align 8, !tbaa !104
  %6 = sext i32 %5 to i64
  %7 = icmp ugt i32 %5, 1023
  br i1 %7, label %ACLSetSelectorCommandBit.exit, label %8

8:                                                ; preds = %3
  %9 = lshr i64 %6, 6
  %10 = and i64 %6, 63
  %11 = shl nuw i64 1, %10
  %.not.i = icmp eq i32 %2, 0
  br i1 %.not.i, label %17, label %12

12:                                               ; preds = %8
  %13 = getelementptr inbounds nuw i8, ptr %0, i64 8
  %14 = getelementptr inbounds nuw [16 x i64], ptr %13, i64 0, i64 %9
  %15 = load i64, ptr %14, align 8, !tbaa !5
  %16 = or i64 %15, %11
  store i64 %16, ptr %14, align 8, !tbaa !5
  br label %ACLSetSelectorCommandBit.exit

17:                                               ; preds = %8
  %18 = xor i64 %11, -1
  %19 = getelementptr inbounds nuw i8, ptr %0, i64 8
  %20 = getelementptr inbounds nuw [16 x i64], ptr %19, i64 0, i64 %9
  %21 = load i64, ptr %20, align 8, !tbaa !5
  %22 = and i64 %21, %18
  store i64 %22, ptr %20, align 8, !tbaa !5
  %23 = load i32, ptr %0, align 8, !tbaa !61
  %24 = and i32 %23, -5
  store i32 %24, ptr %0, align 8, !tbaa !61
  br label %ACLSetSelectorCommandBit.exit

ACLSetSelectorCommandBit.exit:                    ; preds = %3, %12, %17
  %25 = getelementptr inbounds nuw i8, ptr %0, i64 136
  %26 = load ptr, ptr %25, align 8, !tbaa !66
  %.not.i15 = icmp eq ptr %26, null
  br i1 %.not.i15, label %ACLResetFirstArgsForCommand.exit, label %27

27:                                               ; preds = %ACLSetSelectorCommandBit.exit
  %28 = getelementptr inbounds nuw ptr, ptr %26, i64 %6
  %29 = load ptr, ptr %28, align 8, !tbaa !73
  %.not15.i = icmp eq ptr %29, null
  br i1 %.not15.i, label %ACLResetFirstArgsForCommand.exit, label %.preheader.i

.preheader.i:                                     ; preds = %27
  %30 = load ptr, ptr %29, align 8, !tbaa !29
  %.not1617.i = icmp eq ptr %30, null
  br i1 %.not1617.i, label %._crit_edge.i, label %.lr.ph.i

._crit_edge.i:                                    ; preds = %.lr.ph.i, %.preheader.i
  %.lcssa.i = phi ptr [ %29, %.preheader.i ], [ %36, %.lr.ph.i ]
  tail call void @zfree(ptr noundef nonnull %.lcssa.i) #25
  %31 = load ptr, ptr %25, align 8, !tbaa !66
  %32 = getelementptr inbounds nuw ptr, ptr %31, i64 %6
  store ptr null, ptr %32, align 8, !tbaa !73
  br label %ACLResetFirstArgsForCommand.exit

.lr.ph.i:                                         ; preds = %.preheader.i, %.lr.ph.i
  %indvars.iv.i = phi i64 [ %indvars.iv.next.i, %.lr.ph.i ], [ 0, %.preheader.i ]
  %33 = phi ptr [ %38, %.lr.ph.i ], [ %30, %.preheader.i ]
  tail call void @sdsfree(ptr noundef nonnull %33) #25
  %indvars.iv.next.i = add nuw nsw i64 %indvars.iv.i, 1
  %34 = load ptr, ptr %25, align 8, !tbaa !66
  %35 = getelementptr inbounds nuw ptr, ptr %34, i64 %6
  %36 = load ptr, ptr %35, align 8, !tbaa !73
  %37 = getelementptr inbounds nuw ptr, ptr %36, i64 %indvars.iv.next.i
  %38 = load ptr, ptr %37, align 8, !tbaa !29
  %.not16.i = icmp eq ptr %38, null
  br i1 %.not16.i, label %._crit_edge.i, label %.lr.ph.i, !llvm.loop !110

ACLResetFirstArgsForCommand.exit:                 ; preds = %ACLSetSelectorCommandBit.exit, %27, %._crit_edge.i
  %39 = getelementptr inbounds nuw i8, ptr %1, i64 288
  %40 = load ptr, ptr %39, align 8, !tbaa !111
  %.not = icmp eq ptr %40, null
  br i1 %.not, label %76, label %41

41:                                               ; preds = %ACLResetFirstArgsForCommand.exit
  %42 = tail call ptr @dictGetSafeIterator(ptr noundef nonnull %40) #25
  %43 = tail call ptr @dictNext(ptr noundef %42) #25
  %.not1418 = icmp eq ptr %43, null
  br i1 %.not1418, label %._crit_edge, label %.lr.ph

.lr.ph:                                           ; preds = %41
  %.not.i16 = icmp eq i32 %2, 0
  %44 = getelementptr inbounds nuw i8, ptr %0, i64 8
  br i1 %.not.i16, label %.lr.ph.split.us, label %.lr.ph.split

.lr.ph.split.us:                                  ; preds = %.lr.ph, %ACLSetSelectorCommandBit.exit17.us
  %45 = phi ptr [ %61, %ACLSetSelectorCommandBit.exit17.us ], [ %43, %.lr.ph ]
  %46 = tail call ptr @dictGetVal(ptr noundef nonnull %45) #25
  %47 = getelementptr inbounds nuw i8, ptr %46, i64 208
  %48 = load i32, ptr %47, align 8, !tbaa !104
  %49 = icmp ugt i32 %48, 1023
  br i1 %49, label %ACLSetSelectorCommandBit.exit17.us, label %50

50:                                               ; preds = %.lr.ph.split.us
  %51 = zext nneg i32 %48 to i64
  %52 = lshr i64 %51, 6
  %53 = and i64 %51, 63
  %54 = shl nuw i64 1, %53
  %55 = xor i64 %54, -1
  %56 = getelementptr inbounds nuw [16 x i64], ptr %44, i64 0, i64 %52
  %57 = load i64, ptr %56, align 8, !tbaa !5
  %58 = and i64 %57, %55
  store i64 %58, ptr %56, align 8, !tbaa !5
  %59 = load i32, ptr %0, align 8, !tbaa !61
  %60 = and i32 %59, -5
  store i32 %60, ptr %0, align 8, !tbaa !61
  br label %ACLSetSelectorCommandBit.exit17.us

ACLSetSelectorCommandBit.exit17.us:               ; preds = %50, %.lr.ph.split.us
  %61 = tail call ptr @dictNext(ptr noundef %42) #25
  %.not14.us = icmp eq ptr %61, null
  br i1 %.not14.us, label %._crit_edge, label %.lr.ph.split.us, !llvm.loop !112

.lr.ph.split:                                     ; preds = %.lr.ph, %ACLSetSelectorCommandBit.exit17
  %62 = phi ptr [ %75, %ACLSetSelectorCommandBit.exit17 ], [ %43, %.lr.ph ]
  %63 = tail call ptr @dictGetVal(ptr noundef nonnull %62) #25
  %64 = getelementptr inbounds nuw i8, ptr %63, i64 208
  %65 = load i32, ptr %64, align 8, !tbaa !104
  %66 = icmp ugt i32 %65, 1023
  br i1 %66, label %ACLSetSelectorCommandBit.exit17, label %67

67:                                               ; preds = %.lr.ph.split
  %68 = zext nneg i32 %65 to i64
  %69 = lshr i64 %68, 6
  %70 = and i64 %68, 63
  %71 = shl nuw i64 1, %70
  %72 = getelementptr inbounds nuw [16 x i64], ptr %44, i64 0, i64 %69
  %73 = load i64, ptr %72, align 8, !tbaa !5
  %74 = or i64 %73, %71
  store i64 %74, ptr %72, align 8, !tbaa !5
  br label %ACLSetSelectorCommandBit.exit17

ACLSetSelectorCommandBit.exit17:                  ; preds = %.lr.ph.split, %67
  %75 = tail call ptr @dictNext(ptr noundef %42) #25
  %.not14 = icmp eq ptr %75, null
  br i1 %.not14, label %._crit_edge, label %.lr.ph.split, !llvm.loop !112

._crit_edge:                                      ; preds = %ACLSetSelectorCommandBit.exit17, %ACLSetSelectorCommandBit.exit17.us, %41
  tail call void @dictReleaseIterator(ptr noundef %42) #25
  br label %76

76:                                               ; preds = %._crit_edge, %ACLResetFirstArgsForCommand.exit
  ret void
}